(dp0
(I10
I4
I3
tp1
Finf
s(I10
I3
I3
tp2
F0.0
s(I10
I4
I5
tp3
Finf
s(I10
I1
I6
tp4
Finf
s(I10
I4
I7
tp5
cnumpy.core.multiarray
scalar
p6
(cnumpy
dtype
p7
(S'f8'
p8
I0
I1
tp9
Rp10
(I3
S'<'
p11
NNNI-1
I-1
I0
tp12
bS'\xc0#\x84(\x00"\x15@'
p13
tp14
Rp15
s(I10
I1
I4
tp16
Finf
s(I10
I4
I9
tp17
g6
(g10
S'L\x17y;?\xcf\xf8?'
p18
tp19
Rp20
s(I10
I3
I9
tp21
g6
(g10
S'\xba5F\xbcgc\x03@'
p22
tp23
Rp24
s(I10
I1
I2
tp25
Finf
s(I10
I2
I2
tp26
F0.0
s(I10
I10
I9
tp27
g6
(g10
S'0\xfaJjo\xd6\xde?'
p28
tp29
Rp30
s(I10
I9
I9
tp31
F0.0
s(I10
I9
I7
tp32
g6
(g10
S'0d,g\xe9\x1f\xe2?'
p33
tp34
Rp35
s(I10
I2
I6
tp36
g6
(g10
S'\x8d\x97\xabp ?\x08@'
p37
tp38
Rp39
s(I10
I9
I5
tp40
g6
(g10
S'\x08\x03\xadz\xea\x93\xf1?'
p41
tp42
Rp43
s(I10
I7
I2
tp44
g6
(g10
S'j\xc8\xb8\xbe\xd3\xb9\x0b@'
p45
tp46
Rp47
s(I10
I2
I4
tp48
Finf
s(I10
I1
I10
tp49
Finf
s(I10
I10
I3
tp50
g6
(g10
S'8?\xf0\x8d\x01-\xfc?'
p51
tp52
Rp53
s(I10
I6
I9
tp54
g6
(g10
S'\x98\xc3\x92\x0cN\x06\xee?'
p55
tp56
Rp57
s(I10
I9
I3
tp58
g24
s(I10
I7
I4
tp59
g15
s(I10
I2
I10
tp60
g6
(g10
S' HM9\x16\xaa\x05@'
p61
tp62
Rp63
s(I10
I1
I8
tp64
Finf
s(I10
I10
I1
tp65
Finf
s(I10
I6
I7
tp66
g6
(g10
S'r\xb7#\xd4\xeeQ\x02@'
p67
tp68
Rp69
s(I10
I9
I1
tp70
g6
(g10
S'\xe5/"3n)\x11@'
p71
tp72
Rp73
s(I10
I7
I6
tp74
g69
s(I10
I2
I8
tp75
g6
(g10
S'\xfa\xd5\xd9N\x8c4\r@'
p76
tp77
Rp78
s(I10
I10
I7
tp79
g6
(g10
S'\xd0\xd0(\xb4\x99\xbb\xdc?'
p80
tp81
Rp82
s(I10
I6
I5
tp83
Finf
s(I10
I7
I8
tp84
g6
(g10
S'\x88~\xe9;\x88<\xec?'
p85
tp86
Rp87
s(I10
I10
I5
tp88
g6
(g10
S'\x90!\xc5\x15\x01\x7f\xe4?'
p89
tp90
Rp91
s(I10
I8
I8
tp92
F0.0
s(I10
I6
I3
tp93
Finf
s(I10
I7
I10
tp94
g82
s(I10
I5
I3
tp95
g6
(g10
S'\x90\x84\x03\xb8\xdf]\n@'
p96
tp97
Rp98
s(I10
I8
I10
tp99
g6
(g10
S'\xd8\x07\xf4\xdb\xd1\xa2\xe0?'
p100
tp101
Rp102
s(I10
I6
I1
tp103
Finf
s(I10
I5
I1
tp104
Finf
s(I10
I8
I4
tp105
g6
(g10
S'\x1a\x18\xe3\xe8\x91\x92\x10@'
p106
tp107
Rp108
s(I10
I5
I7
tp109
g6
(g10
S'F\xbd\xe9j@\xd1\x11@'
p110
tp111
Rp112
s(I10
I8
I6
tp113
g6
(g10
S'\xa4ed\xd3i\xcc\xf1?'
p114
tp115
Rp116
s(I10
I5
I5
tp117
F0.0
s(I10
I3
I4
tp118
Finf
s(I10
I8
I2
tp119
g78
s(I10
I5
I9
tp120
g43
s(I10
I3
I6
tp121
Finf
s(I10
I3
I2
tp122
Finf
s(I10
I4
I2
tp123
Finf
s(I10
I4
I4
tp124
F0.0
s(I10
I1
I7
tp125
Finf
s(I10
I4
I6
tp126
Finf
s(I10
I3
I8
tp127
g6
(g10
S'\x12\xad\xd5i\xf0~\x14@'
p128
tp129
Rp130
s(I10
I1
I5
tp131
Finf
s(I10
I9
I10
tp132
g30
s(I10
I4
I8
tp133
g108
s(I10
I2
I3
tp134
Finf
s(I10
I3
I10
tp135
g53
s(I10
I1
I3
tp136
Finf
s(I10
I10
I10
tp137
g6
(g10
S'\x00R17\xb8\x0e\xd5?'
p138
tp139
Rp140
s(I10
I9
I8
tp141
g6
(g10
S'pA\xdaS@\xdc\xdb?'
p142
tp143
Rp144
s(I10
I4
I10
tp145
g6
(g10
S'(\xb9$\xd6\x82\xd1\xf1?'
p146
tp147
Rp148
s(I10
I2
I1
tp149
Finf
s(I10
I1
I1
tp150
Finf
s(I10
I10
I8
tp151
g102
s(I10
I9
I6
tp152
g57
s(I10
I2
I7
tp153
g47
s(I10
I9
I4
tp154
g20
s(I10
I7
I1
tp155
Finf
s(I10
I2
I5
tp156
Finf
s(I10
I6
I10
tp157
g6
(g10
S'p:\xbecO\xca\xe1?'
p158
tp159
Rp160
s(I10
I9
I2
tp161
g6
(g10
S'\xbe\\%\xc1\x1e\x0b\x12@'
p162
tp163
Rp164
s(I10
I7
I3
tp165
Finf
s(I10
I10
I2
tp166
g63
s(I10
I6
I8
tp167
g116
s(I10
I7
I5
tp168
g112
s(I10
I2
I9
tp169
g164
s(I10
I1
I9
tp170
g73
s(I10
I6
I6
tp171
F0.0
s(I10
I7
I7
tp172
F0.0
s(I10
I10
I6
tp173
g160
s(I10
I8
I9
tp174
g144
s(I10
I6
I4
tp175
Finf
s(I10
I7
I9
tp176
g35
s(I10
I5
I2
tp177
Finf
s(I10
I10
I4
tp178
g148
s(I10
I6
I2
tp179
g39
s(I10
I8
I5
tp180
g6
(g10
S"X\xb4\x08'*\xb0\x01@"
p181
tp182
Rp183
s(I10
I5
I6
tp184
Finf
s(I10
I8
I7
tp185
g87
s(I10
I5
I4
tp186
Finf
s(I10
I8
I1
tp187
Finf
s(I10
I5
I10
tp188
g91
s(I10
I8
I3
tp189
g130
s(I10
I5
I8
tp190
g183
s(I10
I3
I5
tp191
g98
s(I10
I3
I7
tp192
Finf
s(I10
I4
I1
tp193
Finf
s(I10
I3
I1
tp194
Finf
s.