(dp0
(I10
I4
I3
tp1
Finf
s(I10
I3
I3
tp2
F0.0
s(I10
I4
I5
tp3
cnumpy.core.multiarray
scalar
p4
(cnumpy
dtype
p5
(S'f8'
p6
I0
I1
tp7
Rp8
(I3
S'<'
p9
NNNI-1
I-1
I0
tp10
bS'\xe66\xa9\xfa%\xd5\x14@'
p11
tp12
Rp13
s(I10
I1
I6
tp14
Finf
s(I10
I4
I7
tp15
g4
(g8
S'\x95\x11\x95\xfai?\x1d@'
p16
tp17
Rp18
s(I10
I1
I4
tp19
Finf
s(I10
I4
I9
tp20
g4
(g8
S'@B\xb2\x8b\xd7C\xf7?'
p21
tp22
Rp23
s(I10
I3
I9
tp24
g4
(g8
S' w_\xd8\xad\xb2\x04@'
p25
tp26
Rp27
s(I10
I1
I2
tp28
Finf
s(I10
I2
I2
tp29
F0.0
s(I10
I10
I9
tp30
g4
(g8
S'@:oUS\x87\xbb?'
p31
tp32
Rp33
s(I10
I9
I9
tp34
F0.0
s(I10
I9
I7
tp35
g4
(g8
S'\xe0\xb5\xe045\xf2\xd8?'
p36
tp37
Rp38
s(I10
I2
I6
tp39
g4
(g8
S'\xcaa\x04R\xeeD\r@'
p40
tp41
Rp42
s(I10
I9
I5
tp43
g4
(g8
S'H5W\x91{|\xf1?'
p44
tp45
Rp46
s(I10
I7
I2
tp47
g4
(g8
S'E\x120\xef\x12\x03\x10@'
p48
tp49
Rp50
s(I10
I2
I4
tp51
Finf
s(I10
I1
I10
tp52
g4
(g8
S'\xd2\xc8\x16\xc6d\xa8\x1f@'
p53
tp54
Rp55
s(I10
I10
I3
tp56
g4
(g8
S'D\xbanK<\x84\xf6?'
p57
tp58
Rp59
s(I10
I6
I9
tp60
g4
(g8
S'\xe8z\x84\x06\xddV\xe5?'
p61
tp62
Rp63
s(I10
I9
I3
tp64
g27
s(I10
I7
I4
tp65
g18
s(I10
I2
I10
tp66
g4
(g8
S'.\x19\xc4\xb1\x03\x86\x03@'
p67
tp68
Rp69
s(I10
I1
I8
tp70
g4
(g8
S'\xc4zd\xfa~\xd3\x19@'
p71
tp72
Rp73
s(I10
I10
I1
tp74
g55
s(I10
I6
I7
tp75
g4
(g8
S'\xb0\xc1ye\x8c\xe4\x01@'
p76
tp77
Rp78
s(I10
I9
I1
tp79
g4
(g8
S'\x9d\xa0l,-b\x1b@'
p80
tp81
Rp82
s(I10
I7
I6
tp83
g78
s(I10
I2
I8
tp84
g4
(g8
S'\x83\xcf4\xf7\xa6Z\x11@'
p85
tp86
Rp87
s(I10
I10
I7
tp88
g4
(g8
S'\xa0\xc6O\xe2\xc4\xaa\xd3?'
p89
tp90
Rp91
s(I10
I6
I5
tp92
g4
(g8
S'-\xe9"\x11\xdc\xd6\x1d@'
p93
tp94
Rp95
s(I10
I7
I8
tp96
g4
(g8
S'`\x1c\xa8di\xc9\xe7?'
p97
tp98
Rp99
s(I10
I10
I5
tp100
g4
(g8
S'@\xb9`V\x91\x91\xe3?'
p101
tp102
Rp103
s(I10
I8
I8
tp104
F0.0
s(I10
I6
I3
tp105
g4
(g8
S'\xb8\xfa\xa0\xba\xc36\x14@'
p106
tp107
Rp108
s(I10
I7
I10
tp109
g91
s(I10
I5
I3
tp110
g4
(g8
S'\x00\xd9,\x93\x9eB\x12@'
p111
tp112
Rp113
s(I10
I8
I10
tp114
g4
(g8
S' ^4,bd\xc8?'
p115
tp116
Rp117
s(I10
I6
I1
tp118
Finf
s(I10
I5
I1
tp119
Finf
s(I10
I8
I4
tp120
g4
(g8
S'\xc6Z\x86&\xe5,\r@'
p121
tp122
Rp123
s(I10
I5
I7
tp124
g4
(g8
S'Z8g\x05&7\x0f@'
p125
tp126
Rp127
s(I10
I8
I6
tp128
g4
(g8
S'\xe8mz\xbe\xa5h\xf4?'
p129
tp130
Rp131
s(I10
I5
I5
tp132
F0.0
s(I10
I3
I4
tp133
Finf
s(I10
I8
I2
tp134
g87
s(I10
I5
I9
tp135
g46
s(I10
I3
I6
tp136
g108
s(I10
I3
I2
tp137
Finf
s(I10
I4
I2
tp138
Finf
s(I10
I4
I4
tp139
F0.0
s(I10
I1
I7
tp140
g4
(g8
S'\x9a\xfe\xc8\x0e\xba(\x15@'
p141
tp142
Rp143
s(I10
I4
I6
tp144
g4
(g8
S'H\x11\xde\x89\xc9\xf9\x1a@'
p145
tp146
Rp147
s(I10
I3
I8
tp148
g4
(g8
S'\xd1\x98%\x04\xa5\xd6\x17@'
p149
tp150
Rp151
s(I10
I1
I5
tp152
Finf
s(I10
I9
I10
tp153
g33
s(I10
I4
I8
tp154
g123
s(I10
I2
I3
tp155
Finf
s(I10
I3
I10
tp156
g59
s(I10
I1
I3
tp157
Finf
s(I10
I10
I10
tp158
g4
(g8
S'\x00\x94\x8c\x87\x92\xc0\xab?'
p159
tp160
Rp161
s(I10
I9
I8
tp162
g4
(g8
S'@8\xd8G\xc4u\xc9?'
p163
tp164
Rp165
s(I10
I4
I10
tp166
g4
(g8
S'd[\x90\t\xf0Z\xed?'
p167
tp168
Rp169
s(I10
I2
I1
tp170
Finf
s(I10
I1
I1
tp171
Finf
s(I10
I10
I8
tp172
g117
s(I10
I9
I6
tp173
g63
s(I10
I2
I7
tp174
g50
s(I10
I9
I4
tp175
g23
s(I10
I7
I1
tp176
g143
s(I10
I2
I5
tp177
Finf
s(I10
I6
I10
tp178
g4
(g8
S'0\x17\xc3\xec\x1f\xd7\xde?'
p179
tp180
Rp181
s(I10
I9
I2
tp182
g4
(g8
S'\xdb{\xe9\xd2\x8c\xb0\x12@'
p183
tp184
Rp185
s(I10
I7
I3
tp186
g4
(g8
S'\xbd\x8a\xc7\xab\xa3\r\x16@'
p187
tp188
Rp189
s(I10
I10
I2
tp190
g69
s(I10
I6
I8
tp191
g131
s(I10
I7
I5
tp192
g127
s(I10
I2
I9
tp193
g185
s(I10
I1
I9
tp194
g82
s(I10
I6
I6
tp195
F0.0
s(I10
I7
I7
tp196
F0.0
s(I10
I10
I6
tp197
g181
s(I10
I8
I9
tp198
g165
s(I10
I6
I4
tp199
g147
s(I10
I7
I9
tp200
g38
s(I10
I5
I2
tp201
Finf
s(I10
I10
I4
tp202
g169
s(I10
I6
I2
tp203
g42
s(I10
I8
I5
tp204
g4
(g8
S'Z\x9a\x14\x8f\xec\x0e\x01@'
p205
tp206
Rp207
s(I10
I5
I6
tp208
g95
s(I10
I8
I7
tp209
g99
s(I10
I5
I4
tp210
g13
s(I10
I8
I1
tp211
g73
s(I10
I5
I10
tp212
g103
s(I10
I8
I3
tp213
g151
s(I10
I5
I8
tp214
g207
s(I10
I3
I5
tp215
g113
s(I10
I3
I7
tp216
g189
s(I10
I4
I1
tp217
Finf
s(I10
I3
I1
tp218
Finf
s.