(dp0
(I10
I18
I10
tp1
cnumpy.core.multiarray
scalar
p2
(cnumpy
dtype
p3
(S'f8'
p4
I0
I1
tp5
Rp6
(I3
S'<'
p7
NNNI-1
I-1
I0
tp8
bS'0\x15\xe7"\xc8X\xf8?'
p9
tp10
Rp11
s(I10
I3
I3
tp12
F0.0
s(I10
I10
I17
tp13
g2
(g6
S'D\x8b\x0e\x1e\x13t\x01@'
p14
tp15
Rp16
s(I10
I6
I18
tp17
g2
(g6
S'\xb0Z\xa9\xb9}c\x0e@'
p18
tp19
Rp20
s(I10
I16
I7
tp21
g2
(g6
S'\x88\x82\xa9/\x19P\x16@'
p22
tp23
Rp24
s(I10
I1
I6
tp25
g2
(g6
S'\xe2b\x06\xf2\xec\xf3\x17@'
p26
tp27
Rp28
s(I10
I11
I6
tp29
g2
(g6
S'\xb9s\xfd\xac\xa8\x0f\x1f@'
p30
tp31
Rp32
s(I10
I4
I7
tp33
g2
(g6
S'\x11H^bB\x83\x18@'
p34
tp35
Rp36
s(I10
I17
I20
tp37
g2
(g6
S'p\x89\x8dI20\xe0?'
p38
tp39
Rp40
s(I10
I15
I17
tp41
g2
(g6
S'p\xab]\xe1\x97\xf7\xeb?'
p42
tp43
Rp44
s(I10
I9
I13
tp45
g2
(g6
S'\x85\xce\x85\xc0\x7fv\x1c@'
p46
tp47
Rp48
s(I10
I18
I18
tp49
F0.0
s(I10
I3
I11
tp50
g2
(g6
S'\xdc\x97\x8d\xf9\x03\xaf\x18@'
p51
tp52
Rp53
s(I10
I10
I9
tp54
F0.0
s(I10
I16
I15
tp55
g2
(g6
S'@D\x9a|\x85I\xf1?'
p56
tp57
Rp58
s(I10
I1
I14
tp59
g2
(g6
S'\xba]\x7f%\xd1b\x16@'
p60
tp61
Rp62
s(I10
I4
I15
tp63
g2
(g6
S'\x84\x0e\x12GY\x91\x1d@'
p64
tp65
Rp66
s(I10
I15
I9
tp67
g2
(g6
S'\xddx\x85\xd6\x1c\x85\x13@'
p68
tp69
Rp70
s(I10
I9
I5
tp71
g2
(g6
S'\x87\xb6\xa5\x1f\x1c\xed\x1b@'
p72
tp73
Rp74
s(I10
I3
I20
tp75
g2
(g6
S"l\xb9'\xd6ih\t@"
p76
tp77
Rp78
s(I10
I2
I4
tp79
g2
(g6
S'\x9b\xb0h\x0c,\xfa\x1b@'
p80
tp81
Rp82
s(I10
I13
I16
tp83
g2
(g6
S'\x189\xa32\x99\xb9\xf9?'
p84
tp85
Rp86
s(I10
I6
I9
tp87
g2
(g6
S'\xa7\x7f\x19\xb1\\\x88\x1d@'
p88
tp89
Rp90
s(I10
I19
I6
tp91
g2
(g6
S'\x06R\xb1i\xcb\xcd\x02@'
p92
tp93
Rp94
s(I10
I10
I1
tp95
g2
(g6
S';\xe8\xc3\x12p\xe5\x15@'
p96
tp97
Rp98
s(I10
I7
I6
tp99
g2
(g6
S'\x15\x82Fi\x87\xc7\x1b@'
p100
tp101
Rp102
s(I10
I8
I14
tp103
g2
(g6
S'\x89O\xec\x98<\x15\x1c@'
p104
tp105
Rp106
s(I10
I15
I1
tp107
g2
(g6
S"S\xe3'`_`\x16@"
p108
tp109
Rp110
s(I10
I2
I12
tp111
g2
(g6
S'\xb1\x14L\x9b\xf5\xd7\x14@'
p112
tp113
Rp114
s(I10
I13
I8
tp115
g2
(g6
S'W\x9f\xa7,\xbf\xc6 @'
p116
tp117
Rp118
s(I10
I6
I1
tp119
g2
(g6
S'\xe2b\x06\xf2\xec\xf3\x17@'
p120
tp121
Rp122
s(I10
I19
I14
tp123
g2
(g6
S'\xa0C\xd1\xe71r\xe2?'
p124
tp125
Rp126
s(I10
I7
I14
tp127
g2
(g6
S'\xf6#o\xbb!\x8a @'
p128
tp129
Rp130
s(I10
I17
I5
tp131
g2
(g6
S'\x02\xb9b}\xb8\xdd\x17@'
p132
tp133
Rp134
s(I10
I14
I6
tp135
g2
(g6
S'\xbc\xf6~\x02\xa12 @'
p136
tp137
Rp138
s(I10
I8
I6
tp139
g2
(g6
S'\xf2\xa3c$\x88\x95\x1c@'
p140
tp141
Rp142
s(I10
I20
I8
tp143
g2
(g6
S'\x80Q\x06\x8e\xaak\xec?'
p144
tp145
Rp146
s(I10
I2
I19
tp147
g2
(g6
S'\xdb\r\xd0\xfe#;\x17@'
p148
tp149
Rp150
s(I10
I5
I5
tp151
F0.0
s(I10
I12
I19
tp152
g2
(g6
S"\x00Z\xa8'|\x99\xe6?"
p153
tp154
Rp155
s(I10
I18
I1
tp156
g2
(g6
S'\xb8\xce\xdd\x08\xc2)\x17@'
p157
tp158
Rp159
s(I10
I3
I4
tp160
g2
(g6
S'\xe2b\x06\xf2\xec\xf3\x17@'
p161
tp162
Rp163
s(I10
I11
I15
tp164
g2
(g6
S'\xb2\x9fR$\xc3\x8a\t@'
p165
tp166
Rp167
s(I10
I17
I13
tp168
g2
(g6
S'@"\xd1\xde7\xd8\xf3?'
p169
tp170
Rp171
s(I10
I14
I14
tp172
F0.0
s(I10
I9
I18
tp173
g2
(g6
S'\xe0\xfd}\x14\xb34\xfe?'
p174
tp175
Rp176
s(I10
I20
I16
tp177
g2
(g6
S'P\xc6\xca1\x9a+\xe0?'
p178
tp179
Rp180
s(I10
I5
I13
tp181
g2
(g6
S'L\x8a]i\xf4\xf8\x1e@'
p182
tp183
Rp184
s(I10
I12
I11
tp185
g2
(g6
S'V\x1f\x16%+\xb0\x18@'
p186
tp187
Rp188
s(I10
I18
I9
tp189
g176
s(I10
I3
I12
tp190
g2
(g6
S'\xea\xcbH\x1eoB\x19@'
p191
tp192
Rp193
s(I10
I10
I16
tp194
g2
(g6
S'\xde\xba\xb5\xb6q\x11\x08@'
p195
tp196
Rp197
s(I10
I6
I17
tp198
g2
(g6
S'\x16|:bV\x14\x15@'
p199
tp200
Rp201
s(I10
I16
I6
tp202
g2
(g6
S'\xdfA\xee_\xf1\xf7\x19@'
p203
tp204
Rp205
s(I10
I1
I7
tp206
g2
(g6
S'\x92\xd0\x0bys\xa6\x13@'
p207
tp208
Rp209
s(I10
I11
I7
tp210
g2
(g6
S'\xaf#\x84p\x04+ @'
p211
tp212
Rp213
s(I10
I5
I18
tp214
g2
(g6
S'\x08\xb0\x91\xa1\xe6d\x12@'
p215
tp216
Rp217
s(I10
I4
I6
tp218
g2
(g6
S'\xbf\xfb\x8a+\x04\x9f\x17@'
p219
tp220
Rp221
s(I10
I15
I18
tp222
g2
(g6
S'@T\x06>;B\xe6?'
p223
tp224
Rp225
s(I10
I9
I10
tp226
F0.0
s(I10
I2
I3
tp227
g2
(g6
S'\x00\x1c\xd6\xb1\xeb\x0c\x1f@'
p228
tp229
Rp230
s(I10
I12
I3
tp231
g193
s(I10
I18
I17
tp232
g2
(g6
S'\xd0\x8b\xb8\x9e\x08w\xe0?'
p233
tp234
Rp235
s(I10
I10
I8
tp236
g2
(g6
S'\x9e\xc0\xc3F\x16> @'
p237
tp238
Rp239
s(I10
I16
I14
tp240
g2
(g6
S'`R\x92\xffP*\xf5?'
p241
tp242
Rp243
s(I10
I1
I15
tp244
g110
s(I10
I8
I17
tp245
g2
(g6
S'\xbc_M\xca \xa5\x0b@'
p246
tp247
Rp248
s(I10
I4
I14
tp249
g2
(g6
S'\\a\xaf\xb0&p\x1d@'
p250
tp251
Rp252
s(I10
I15
I10
tp253
g2
(g6
S'|\xcf\xda\xfb\xa7*\x0f@'
p254
tp255
Rp256
s(I10
I9
I2
tp257
g2
(g6
S'h~\xeb[\x07 \x13@'
p258
tp259
Rp260
s(I10
I2
I11
tp261
g2
(g6
S'~\x8e\xdc\xa8\xe08\x14@'
p262
tp263
Rp264
s(I10
I13
I17
tp265
g171
s(I10
I6
I8
tp266
g142
s(I10
I19
I7
tp267
g2
(g6
S'\xb8o,t\x8d\xe4\xfd?'
p268
tp269
Rp270
s(I10
I4
I17
tp271
g2
(g6
S'\xbe\xa0\x98@\x9fH\x1e@'
p272
tp273
Rp274
s(I10
I7
I7
tp275
F0.0
s(I10
I8
I9
tp276
g2
(g6
S"'V\xfc\xd7k\x8c\x1f@"
p277
tp278
Rp279
s(I10
I20
I3
tp280
g78
s(I10
I5
I2
tp281
g2
(g6
S'\xe2b\x06\xf2\xec\xf3\x17@'
p282
tp283
Rp284
s(I10
I15
I2
tp285
g2
(g6
S'\xbf\x18\x1aT\xd9;\x16@'
p286
tp287
Rp288
s(I10
I13
I9
tp289
g48
s(I10
I19
I15
tp290
g2
(g6
S'\x80\xdf%\x84T\xd8\xe0?'
p291
tp292
Rp293
s(I10
I1
I20
tp294
g2
(g6
S'\x8c\x90\xad\x1b\xe4f\x19@'
p295
tp296
Rp297
s(I10
I11
I16
tp298
g2
(g6
S'4\xf1?\xe9\xe7\xa7\x03@'
p299
tp300
Rp301
s(I10
I7
I15
tp302
g2
(g6
S'\x89gw\xf3\xd3 \x1b@'
p303
tp304
Rp305
s(I10
I17
I2
tp306
g2
(g6
S'\x99\xe1\x8c\xb8\x86\x7f\x16@'
p307
tp308
Rp309
s(I10
I14
I5
tp310
g2
(g6
S'\x9eY4\xdb\xcaD\x1f@'
p311
tp312
Rp313
s(I10
I8
I1
tp314
g2
(g6
S'\x0b\xfb:\x10\xbb/\x15@'
p315
tp316
Rp317
s(I10
I20
I11
tp318
g2
(g6
S'\xa0&\xf1\xac\xa6i\xe1?'
p319
tp320
Rp321
s(I10
I2
I18
tp322
g2
(g6
S'u\xccD{\xf2\x13\x17@'
p323
tp324
Rp325
s(I10
I5
I10
tp326
g2
(g6
S'\x1a\xf4R\x1dl\xcc\x1c@'
p327
tp328
Rp329
s(I10
I12
I18
tp330
g2
(g6
S'(h\x0e\xdd\x87\x18\xf1?'
p331
tp332
Rp333
s(I10
I3
I5
tp334
g2
(g6
S'\x05\xf7H4\xf1\xac\x13@'
p335
tp336
Rp337
s(I10
I13
I1
tp338
g2
(g6
S'\x96\xe6\x92\xd7I\x8c\x16@'
p339
tp340
Rp341
s(I10
I7
I16
tp342
g24
s(I10
I11
I8
tp343
g2
(g6
S'\xcb\x0bB\x85+\x91 @'
p344
tp345
Rp346
s(I10
I4
I1
tp347
g2
(g6
S'\x00\x1c\xd6\xb1\xeb\x0c\x1f@'
p348
tp349
Rp350
s(I10
I17
I10
tp351
g16
s(I10
I14
I13
tp352
g2
(g6
S'd\x7f\xe1\x9c\xa1\xf5\x04@'
p353
tp354
Rp355
s(I10
I9
I19
tp356
g2
(g6
S'\x80"\xef\xa1\xd5x\xf2?'
p357
tp358
Rp359
s(I10
I20
I19
tp360
g2
(g6
S'\xc0qQ\xcf+E\xe0?'
p361
tp362
Rp363
s(I10
I12
I10
tp364
g2
(g6
S'\xa33H\x97R\x93\x1c@'
p365
tp366
Rp367
s(I10
I18
I8
tp368
g2
(g6
S'\xb0\\L\x03\x8dq\x03@'
p369
tp370
Rp371
s(I10
I3
I13
tp372
g2
(g6
S'\x86\xd7\xf0\xc7#\xcf\x19@'
p373
tp374
Rp375
s(I10
I6
I16
tp376
g205
s(I10
I16
I1
tp377
g2
(g6
S'\x14_\xd8\x7f\xfa2\x16@'
p378
tp379
Rp380
s(I10
I1
I4
tp381
g2
(g6
S'\x00\x1c\xd6\xb1\xeb\x0c\x1f@'
p382
tp383
Rp384
s(I10
I5
I19
tp385
g2
(g6
S'"\x85\xb9\xbdG\x08\x08@'
p386
tp387
Rp388
s(I10
I4
I9
tp389
g2
(g6
S'l/\x1e@\x1d2\x1a@'
p390
tp391
Rp392
s(I10
I17
I18
tp393
g235
s(I10
I15
I19
tp394
g293
s(I10
I9
I11
tp395
g2
(g6
S'\xd5\xaa\x08\x97\xb6\xca @'
p396
tp397
Rp398
s(I10
I2
I2
tp399
F0.0
s(I10
I12
I2
tp400
g114
s(I10
I6
I15
tp401
g2
(g6
S'8\xda\xf6\xc6\x01@ @'
p402
tp403
Rp404
s(I10
I18
I16
tp405
g2
(g6
S'\x80+@t\xe0\xf4\xe2?'
p406
tp407
Rp408
s(I10
I10
I15
tp409
g256
s(I10
I16
I9
tp410
g2
(g6
S'\\\xb5\x12`f(\x0e@'
p411
tp412
Rp413
s(I10
I14
I20
tp414
g2
(g6
S'\xa0?J\x8b\xab\xc4\xdf?'
p415
tp416
Rp417
s(I10
I1
I12
tp418
g2
(g6
S'\x9f\x8d\x10\xd3\x84K\x16@'
p419
tp420
Rp421
s(I10
I8
I16
tp422
g2
(g6
S']\xaf(!p\xcf\x12@'
p423
tp424
Rp425
s(I10
I15
I11
tp426
g167
s(I10
I9
I3
tp427
g2
(g6
S'\xad\x86 \xa8To\x17@'
p428
tp429
Rp430
s(I10
I2
I10
tp431
g2
(g6
S'\x1dl\xe2s\x1e\x83\x13@'
p432
tp433
Rp434
s(I10
I6
I7
tp435
g102
s(I10
I10
I7
tp436
g2
(g6
S'\x1e\xd8;Dbg\x1f@'
p437
tp438
Rp439
s(I10
I4
I16
tp440
g2
(g6
S'\x14\x10/Et\x83\x1d@'
p441
tp442
Rp443
s(I10
I7
I8
tp444
g2
(g6
S'\xba\xfa\xe2\xbc\x03\xc3\x1d@'
p445
tp446
Rp447
s(I10
I16
I17
tp448
g2
(g6
S'\xf0.\x90\xe4\x99Z\xe7?'
p449
tp450
Rp451
s(I10
I8
I8
tp452
F0.0
s(I10
I20
I2
tp453
g2
(g6
S'1\x8a\xc3\x98\xf4\x1a\x14@'
p454
tp455
Rp456
s(I10
I5
I3
tp457
g337
s(I10
I15
I3
tp458
g2
(g6
S'\xab\xa6\xd3\xd8\xda\xd0\x1a@'
p459
tp460
Rp461
s(I10
I13
I14
tp462
g355
s(I10
I19
I8
tp463
g2
(g6
S' \xb3\xd4p\xb19\xf7?'
p464
tp465
Rp466
s(I10
I11
I17
tp467
g2
(g6
S'\xf0\xbe-\x19\xcc\xc9\xfc?'
p468
tp469
Rp470
s(I10
I17
I3
tp471
g2
(g6
S'\x7f\x81\x93\xcd\xa4G\x1b@'
p472
tp473
Rp474
s(I10
I14
I4
tp475
g252
s(I10
I20
I10
tp476
g2
(g6
S'\xa0\xe5\x03L\xad#\xe2?'
p477
tp478
Rp479
s(I10
I2
I17
tp480
g309
s(I10
I5
I11
tp481
g2
(g6
S't\x0fN\xf4\xb5i\x1d@'
p482
tp483
Rp484
s(I10
I18
I7
tp485
g2
(g6
S'\xe8_U\xb6\x89\xc6\x07@'
p486
tp487
Rp488
s(I10
I3
I6
tp489
g2
(g6
S'\\&/[\xef+\x15@'
p490
tp491
Rp492
s(I10
I13
I6
tp493
g2
(g6
S'\xc8\xb8\r\xd5\xb7$ @'
p494
tp495
Rp496
s(I10
I7
I17
tp497
g2
(g6
S'\x90\x00\\\x95\xbb5\x11@'
p498
tp499
Rp500
s(I10
I19
I16
tp501
g2
(g6
S'\x80T\x9f\x80[\xf3\xde?'
p502
tp503
Rp504
s(I10
I11
I9
tp505
g398
s(I10
I17
I11
tp506
g470
s(I10
I14
I12
tp507
g2
(g6
S'V\xfbNx78\n@'
p508
tp509
Rp510
s(I10
I9
I16
tp511
g413
s(I10
I20
I18
tp512
g2
(g6
S'\x80\xbf#_b)\xe0?'
p513
tp514
Rp515
s(I10
I12
I13
tp516
g2
(g6
S'\x1a\x81\x15GOU\x10@'
p517
tp518
Rp519
s(I10
I18
I15
tp520
g225
s(I10
I3
I14
tp521
g2
(g6
S'hb\xe0\x1c\xc8\x84\x1a@'
p522
tp523
Rp524
s(I10
I1
I5
tp525
g2
(g6
S'\x9b\xb0h\x0c,\xfa\x1b@'
p526
tp527
Rp528
s(I10
I11
I1
tp529
g2
(g6
S'cf\x9a\x9b\x89\x8a\x16@'
p530
tp531
Rp532
s(I10
I5
I16
tp533
g2
(g6
S'\x1a\x1fx\x011\xaf\x1f@'
p534
tp535
Rp536
s(I10
I4
I8
tp537
g2
(g6
S'"Nu\xcb`\x87\x19@'
p538
tp539
Rp540
s(I10
I17
I19
tp541
g2
(g6
S' \xb3\xea\x98\x00\xd0\xdc?'
p542
tp543
Rp544
s(I10
I15
I20
tp545
g2
(g6
S'\xe0I\x93\t\x08+\xe0?'
p546
tp547
Rp548
s(I10
I9
I8
tp549
g279
s(I10
I2
I1
tp550
g2
(g6
S'z\xd3\x8d#\x80\xea!@'
p551
tp552
Rp553
s(I10
I12
I5
tp554
g2
(g6
S'\x95{\xa4j\x9fL\x1e@'
p555
tp556
Rp557
s(I10
I6
I14
tp558
g138
s(I10
I10
I14
tp559
g2
(g6
S'\xc9\t\xf3E \xde\x13@'
p560
tp561
Rp562
s(I10
I7
I1
tp563
g209
s(I10
I16
I8
tp564
g425
s(I10
I14
I19
tp565
g126
s(I10
I1
I13
tp566
g341
s(I10
I8
I19
tp567
g466
s(I10
I15
I12
tp568
g2
(g6
S'\x0c}+[\xd9\xa4\x04@'
p569
tp570
Rp571
s(I10
I2
I9
tp572
g260
s(I10
I6
I6
tp573
F0.0
s(I10
I19
I1
tp574
g2
(g6
S">\x83\xa3\xf6':\x18@"
p575
tp576
Rp577
s(I10
I10
I6
tp578
g2
(g6
S'5l_\xc9\x81(\x1e@'
p579
tp580
Rp581
s(I10
I4
I19
tp582
g2
(g6
S'\x06\xa3N h\xb6\x0b@'
p583
tp584
Rp585
s(I10
I7
I9
tp586
g2
(g6
S'q\xfe\x9f#\x02\x93\x1e@'
p587
tp588
Rp589
s(I10
I16
I16
tp590
F0.0
s(I10
I8
I11
tp591
g346
s(I10
I20
I5
tp592
g2
(g6
S'\x0c\xe7\x0f@\xbf\x80\xfd?'
p593
tp594
Rp595
s(I10
I15
I4
tp596
g66
s(I10
I13
I15
tp597
g2
(g6
S'\xa0\xc9\xa8#c\xa3\x00@'
p598
tp599
Rp600
s(I10
I19
I9
tp601
g359
s(I10
I1
I18
tp602
g159
s(I10
I11
I18
tp603
g2
(g6
S'\x80m\xddp\xfc?\xf4?'
p604
tp605
Rp606
s(I10
I14
I3
tp607
g524
s(I10
I8
I3
tp608
g2
(g6
S'\tI\xba#\xc8\xaa\x16@'
p609
tp610
Rp611
s(I10
I20
I13
tp612
g2
(g6
S'\x00\x9f3\xbbk\xf1\xdf?'
p613
tp614
Rp615
s(I10
I2
I16
tp616
g2
(g6
S'}\r8,y/\x16@'
p617
tp618
Rp619
s(I10
I5
I8
tp620
g2
(g6
S'Q\xe2ha\x13i\x1b@'
p621
tp622
Rp623
s(I10
I12
I20
tp624
g2
(g6
S'P\xb7\x83I9T\xe0?'
p625
tp626
Rp627
s(I10
I18
I6
tp628
g20
s(I10
I3
I7
tp629
g2
(g6
S'8S\x9e\xc5\xdb\x15\x16@'
p630
tp631
Rp632
s(I10
I13
I7
tp633
g2
(g6
S'\x96\xa3\x0ec\x9d\x8b @'
p634
tp635
Rp636
s(I10
I7
I18
tp637
g488
s(I10
I19
I17
tp638
g544
s(I10
I11
I10
tp639
F0.0
s(I10
I4
I3
tp640
g163
s(I10
I17
I8
tp641
g248
s(I10
I14
I11
tp642
g2
(g6
S'\xd6r\x140\x91&\x10@'
p643
tp644
Rp645
s(I10
I9
I17
tp646
g2
(g6
S'": \x8dM\xb8\x05@'
p647
tp648
Rp649
s(I10
I12
I12
tp650
F0.0
s(I10
I18
I14
tp651
g2
(g6
S'\x10\xda\r\xe6\xbb\x9d\xe9?'
p652
tp653
Rp654
s(I10
I3
I15
tp655
g461
s(I10
I16
I3
tp656
g2
(g6
S'24\xe5\xc4\x07\xbb\x1a@'
p657
tp658
Rp659
s(I10
I1
I2
tp660
g2
(g6
S'z\xd3\x8d#\x80\xea!@'
p661
tp662
Rp663
s(I10
I11
I2
tp664
g264
s(I10
I5
I17
tp665
g134
s(I10
I4
I11
tp666
g2
(g6
S'?\xb0\xdc\xaa\xe8\x8d\x1b@'
p667
tp668
Rp669
s(I10
I17
I16
tp670
g451
s(I10
I9
I9
tp671
F0.0
s(I10
I12
I4
tp672
g2
(g6
S'\xe4?\xf0\x1a\x1f\x00\x1c@'
p673
tp674
Rp675
s(I10
I6
I13
tp676
g496
s(I10
I10
I13
tp677
g2
(g6
S'~\xae\xa7\x00 \x9b\x18@'
p678
tp679
Rp680
s(I10
I7
I2
tp681
g2
(g6
S'\xc3\xc2\x91h\xed$\x12@'
p682
tp683
Rp684
s(I10
I16
I11
tp685
g301
s(I10
I14
I18
tp686
g654
s(I10
I1
I10
tp687
g98
s(I10
I8
I18
tp688
g371
s(I10
I15
I13
tp689
g600
s(I10
I9
I1
tp690
g2
(g6
S'\x05\xad\xf3\xb9\x02.\x15@'
p691
tp692
Rp693
s(I10
I3
I16
tp694
g659
s(I10
I2
I8
tp695
g2
(g6
S'\xc9\xd6\x85\xe7\x07\x82\x12@'
p696
tp697
Rp698
s(I10
I13
I20
tp699
g615
s(I10
I6
I5
tp700
g2
(g6
S'\x06\xa4\xbb`p!\x19@'
p701
tp702
Rp703
s(I10
I19
I2
tp704
g150
s(I10
I10
I5
tp705
g329
s(I10
I4
I18
tp706
g2
(g6
S'\x8d\xddqH$U\x15@'
p707
tp708
Rp709
s(I10
I7
I10
tp710
g439
s(I10
I16
I19
tp711
g504
s(I10
I8
I10
tp712
g239
s(I10
I20
I4
tp713
g2
(g6
S'0|\xf7D-e\x00@'
p714
tp715
Rp716
s(I10
I5
I1
tp717
g2
(g6
S'\x9b\xb0h\x0c,\xfa\x1b@'
p718
tp719
Rp720
s(I10
I15
I5
tp721
g2
(g6
S'\x12\x97U[\xc6?\x1f@'
p722
tp723
Rp724
s(I10
I13
I12
tp725
g519
s(I10
I19
I10
tp726
g2
(g6
S'\x90\x1f1](n\xed?'
p727
tp728
Rp729
s(I10
I1
I19
tp730
g577
s(I10
I11
I19
tp731
g2
(g6
S' \x1c\xadU\xc0v\xe9?'
p732
tp733
Rp734
s(I10
I17
I1
tp735
g2
(g6
S'\xd0;\xf0+\x14\xa3\x15@'
p736
tp737
Rp738
s(I10
I14
I2
tp739
g2
(g6
S'\xa9\x17\xce\xbfA\xdc\x15@'
p740
tp741
Rp742
s(I10
I8
I2
tp743
g698
s(I10
I20
I12
tp744
g627
s(I10
I5
I9
tp745
g74
s(I10
I18
I5
tp746
g217
s(I10
I13
I4
tp747
g2
(g6
S'\xe4\x0f\x9a\xb7\r\xec\x1c@'
p748
tp749
Rp750
s(I10
I7
I19
tp751
g270
s(I10
I19
I18
tp752
g2
(g6
S'\xc0\x16\x13\x1b\xa3\xe2\xda?'
p753
tp754
Rp755
s(I10
I11
I11
tp756
F0.0
s(I10
I4
I2
tp757
g82
s(I10
I17
I9
tp758
g649
s(I10
I14
I10
tp759
g562
s(I10
I9
I14
tp760
g2
(g6
S'\xfe{cp\xe9\x0c\x18@'
p761
tp762
Rp763
s(I10
I20
I20
tp764
g2
(g6
S'\x10\x88\x93\x12\xd08\xe0?'
p765
tp766
Rp767
s(I10
I12
I15
tp768
g571
s(I10
I18
I13
tp769
g2
(g6
S'`\xb42>m\x8d\xed?'
p770
tp771
Rp772
s(I10
I3
I8
tp773
g611
s(I10
I10
I20
tp774
g479
s(I10
I16
I2
tp775
g619
s(I10
I1
I3
tp776
g2
(g6
S'\x04:}\xce\x19\xe5 @'
p777
tp778
Rp779
s(I10
I11
I3
tp780
g53
s(I10
I4
I10
tp781
g2
(g6
S'\xd6\xad\xb3\x0c\x84\xb4\x1a@'
p782
tp783
Rp784
s(I10
I17
I17
tp785
F0.0
s(I10
I9
I6
tp786
g90
s(I10
I2
I7
tp787
g684
s(I10
I12
I7
tp788
g2
(g6
S'\xce\xe9\xfd\xe5Vo @'
p789
tp790
Rp791
s(I10
I6
I12
tp792
g2
(g6
S'\xb6_\x1f\x01\t\xde\x1f@'
p793
tp794
Rp795
s(I10
I10
I12
tp796
g367
s(I10
I7
I3
tp797
g632
s(I10
I16
I10
tp798
g197
s(I10
I14
I17
tp799
g2
(g6
S'H\x0c\xa6\x0bp\xaa\xf0?'
p800
tp801
Rp802
s(I10
I1
I11
tp803
g532
s(I10
I8
I13
tp804
g118
s(I10
I15
I14
tp805
g2
(g6
S'\xd8\x1f\x9d\xca\x01n\xfa?'
p806
tp807
Rp808
s(I10
I3
I17
tp809
g474
s(I10
I2
I15
tp810
g288
s(I10
I6
I4
tp811
g221
s(I10
I19
I3
tp812
g2
(g6
S'2\xcd\xadNJO\x11@'
p813
tp814
Rp815
s(I10
I11
I20
tp816
g321
s(I10
I10
I4
tp817
g784
s(I10
I7
I11
tp818
g213
s(I10
I17
I6
tp819
g201
s(I10
I16
I18
tp820
g408
s(I10
I8
I5
tp821
g623
s(I10
I20
I7
tp822
g2
(g6
S'\x185H\x8d<\x0c\xf3?'
p823
tp824
Rp825
s(I10
I5
I6
tp826
g703
s(I10
I15
I6
tp827
g404
s(I10
I13
I13
tp828
F0.0
s(I10
I19
I11
tp829
g734
s(I10
I1
I16
tp830
g380
s(I10
I11
I12
tp831
g188
s(I10
I17
I14
tp832
g802
s(I10
I14
I1
tp833
g62
s(I10
I20
I15
tp834
g548
s(I10
I5
I14
tp835
g313
s(I10
I18
I4
tp836
g709
s(I10
I3
I1
tp837
g2
(g6
S'\x04:}\xce\x19\xe5 @'
p838
tp839
Rp840
s(I10
I10
I19
tp841
g729
s(I10
I13
I5
tp842
g184
s(I10
I7
I20
tp843
g825
s(I10
I6
I20
tp844
g2
(g6
S'\x98%8\n\x0e\x98\xf7?'
p845
tp846
Rp847
s(I10
I16
I5
tp848
g536
s(I10
I19
I19
tp849
F0.0
s(I10
I11
I4
tp850
g669
s(I10
I4
I5
tp851
g2
(g6
S'~\xe87\x93\xa7\x12\x16@'
p852
tp853
Rp854
s(I10
I14
I9
tp855
g763
s(I10
I9
I15
tp856
g70
s(I10
I12
I14
tp857
g510
s(I10
I18
I12
tp858
g333
s(I10
I3
I9
tp859
g430
s(I10
I10
I11
tp860
F0.0
s(I10
I16
I13
tp861
g86
s(I10
I8
I20
tp862
g146
s(I10
I4
I13
tp863
g750
s(I10
I9
I7
tp864
g589
s(I10
I2
I6
tp865
g2
(g6
S'\xff\x1d\xf1\xe3\xa9g\x13@'
p866
tp867
Rp868
s(I10
I13
I18
tp869
g772
s(I10
I12
I6
tp870
g795
s(I10
I6
I11
tp871
g32
s(I10
I19
I4
tp872
g585
s(I10
I18
I20
tp873
g515
s(I10
I10
I3
tp874
g2
(g6
S"'\x05\xf2\x876\xce\x17@"
p875
tp876
Rp877
s(I10
I7
I4
tp878
g36
s(I10
I14
I16
tp879
g243
s(I10
I1
I8
tp880
g317
s(I10
I8
I12
tp881
g2
(g6
S'\xd4\xcf~\x83\xaf\xbb @'
p882
tp883
Rp884
s(I10
I15
I15
tp885
F0.0
s(I10
I3
I18
tp886
g2
(g6
S'\x83\xc4:\x8d\x9d\xd1\x1b@'
p887
tp888
Rp889
s(I10
I2
I14
tp890
g742
s(I10
I13
I10
tp891
g680
s(I10
I6
I3
tp892
g492
s(I10
I19
I12
tp893
g155
s(I10
I4
I20
tp894
g716
s(I10
I7
I12
tp895
g791
s(I10
I17
I7
tp896
g500
s(I10
I8
I4
tp897
g540
s(I10
I20
I6
tp898
g847
s(I10
I5
I7
tp899
g2
(g6
S'b{{\xbe\xaar\x1a@'
p900
tp901
Rp902
s(I10
I12
I17
tp903
g2
(g6
S'`\xa4=s\xcb\x97\xf7?'
p904
tp905
Rp906
s(I10
I15
I7
tp907
g305
s(I10
I18
I3
tp908
g889
s(I10
I13
I2
tp909
g2
(g6
S'v\x04\xb7\x1b}\x1e\x15@'
p910
tp911
Rp912
s(I10
I19
I20
tp913
g363
s(I10
I1
I17
tp914
g738
s(I10
I11
I13
tp915
g2
(g6
S'\x17v\xd6p\x96\x13\x14@'
p916
tp917
Rp918
s(I10
I17
I15
tp919
g44
s(I10
I9
I20
tp920
g2
(g6
S'\xb0\xcb8*\xc2\xea\xe6?'
p921
tp922
Rp923
s(I10
I20
I14
tp924
g417
s(I10
I5
I15
tp925
g724
s(I10
I12
I9
tp926
g2
(g6
S'\xfb\xcc\xb3J\xc8\xe2 @'
p927
tp928
Rp929
s(I10
I18
I11
tp930
g606
s(I10
I3
I2
tp931
g230
s(I10
I10
I18
tp932
g11
s(I10
I6
I19
tp933
g94
s(I10
I16
I4
tp934
g443
s(I10
I11
I5
tp935
g484
s(I10
I4
I4
tp936
F0.0
s(I10
I15
I16
tp937
g58
s(I10
I14
I8
tp938
g106
s(I10
I9
I12
tp939
g929
s(I10
I12
I1
tp940
g421
s(I10
I18
I19
tp941
g755
s(I10
I3
I10
tp942
g877
s(I10
I10
I10
tp943
F0.0
s(I10
I16
I12
tp944
g2
(g6
S'8\xfapa\xd5\x08\x00@'
p945
tp946
Rp947
s(I10
I1
I1
tp948
g2
(g6
S'\x7f\xd7\x13\xc2\xa9\xe4"@'
p949
tp950
Rp951
s(I10
I5
I20
tp952
g595
s(I10
I4
I12
tp953
g675
s(I10
I15
I8
tp954
g2
(g6
S'R:p\r\x95\x81\x17@'
p955
tp956
Rp957
s(I10
I9
I4
tp958
g392
s(I10
I2
I5
tp959
g284
s(I10
I13
I19
tp960
g2
(g6
S'\x80\xe9g\xf6KZ\xe4?'
p961
tp962
Rp963
s(I10
I6
I10
tp964
g581
s(I10
I19
I5
tp965
g388
s(I10
I10
I2
tp966
g434
s(I10
I7
I5
tp967
g902
s(I10
I16
I20
tp968
g180
s(I10
I1
I9
tp969
g693
s(I10
I8
I15
tp970
g957
s(I10
I20
I1
tp971
g297
s(I10
I3
I19
tp972
g815
s(I10
I2
I13
tp973
g912
s(I10
I13
I11
tp974
g918
s(I10
I6
I2
tp975
g868
s(I10
I19
I13
tp976
g963
s(I10
I7
I13
tp977
g636
s(I10
I17
I4
tp978
g274
s(I10
I14
I7
tp979
g130
s(I10
I8
I7
tp980
g447
s(I10
I20
I9
tp981
g923
s(I10
I5
I4
tp982
g854
s(I10
I12
I16
tp983
g947
s(I10
I18
I2
tp984
g325
s(I10
I13
I3
tp985
g375
s(I10
I11
I14
tp986
g645
s(I10
I17
I12
tp987
g906
s(I10
I14
I15
tp988
g808
s(I10
I20
I17
tp989
g40
s(I10
I2
I20
tp990
g456
s(I10
I5
I12
tp991
g557
s(I10
I12
I8
tp992
g884
s.