(dp0
(F1.0
F0.2
F0.4
tp1
cnumpy.core.multiarray
scalar
p2
(cnumpy
dtype
p3
(S'f8'
p4
I0
I1
tp5
Rp6
(I3
S'<'
p7
NNNI-1
I-1
I0
tp8
bS'\x80\xb7\xfd\x18u\xef\xaf?'
p9
tp10
Rp11
s(F1.0
F1.4000000000000001
F0.6000000000000001
tp12
g2
(g6
S'@\x90\xea(\x7f\x01\xb0?'
p13
tp14
Rp15
s(F1.0
F0.2
F1.2000000000000002
tp16
g2
(g6
S'\x80\xcb \xc9\xcc\x99\xb1?'
p17
tp18
Rp19
s(F1.0
F1.8
F2.0
tp20
g2
(g6
S'\x80\x04\xae\x8d\x98\xf7\xb0?'
p21
tp22
Rp23
s(F1.0
F2.0
F0.4
tp24
g2
(g6
S'\xc0a"e\xd5\xbf\xb3?'
p25
tp26
Rp27
s(F1.0
F1.2000000000000002
F1.4000000000000001
tp28
g2
(g6
S'\x00R\xf4\x849\xf5\xab?'
p29
tp30
Rp31
s(F1.0
F1.8
F0.6000000000000001
tp32
g2
(g6
S'\x00\xb1\xd7\x0c\xef\x8f\xb1?'
p33
tp34
Rp35
s(F1.0
F1.2000000000000002
F1.8
tp36
g2
(g6
S'\x00d\x0fZ\x07]\xaf?'
p37
tp38
Rp39
s(F1.0
F0.6000000000000001
F1.0
tp40
g2
(g6
S'\x80M=\xe1=\xc8\xac?'
p41
tp42
Rp43
s(F1.0
F2.0
F1.2000000000000002
tp44
g2
(g6
S'@c\xdbU\x8ay\xb0?'
p45
tp46
Rp47
s(F1.0
F1.8
F0.8
tp48
g2
(g6
S'\xc0\x17\xd3B\x97\xab\xb0?'
p49
tp50
Rp51
s(F1.0
F0.8
F0.4
tp52
g2
(g6
S'\x00\xce\x0c\xcf\x1d\xc8\xae?'
p53
tp54
Rp55
s(F1.0
F0.2
F0.2
tp56
g2
(g6
S'\x00\x96\xe6\x88\x86(\xaf?'
p57
tp58
Rp59
s(F1.0
F2.0
F2.0
tp60
g2
(g6
S'\x00|\xa1\xcaA\x15\xb1?'
p61
tp62
Rp63
s(F1.0
F0.2
F1.8
tp64
g2
(g6
S'\x80\xd3\xb1\x8d=\x05\xb4?'
p65
tp66
Rp67
s(F1.0
F1.4000000000000001
F1.8
tp68
g2
(g6
S'\x80hY9J\x94\xaf?'
p69
tp70
Rp71
s(F1.0
F0.8
F1.2000000000000002
tp72
g2
(g6
S'\x00DT\xc6\x13\xfb\xab?'
p73
tp74
Rp75
s(F1.0
F0.8
F0.2
tp76
g2
(g6
S'\x00\xaa!L\x81}\xb0?'
p77
tp78
Rp79
s(F1.0
F0.6000000000000001
F1.4000000000000001
tp80
g15
s(F1.0
F0.2
F2.0
tp81
g2
(g6
S'@H<a\x90\xbc\xb4?'
p82
tp83
Rp84
s(F1.0
F0.4
F0.6000000000000001
tp85
g2
(g6
S'\x80Lb\xc6\xa6k\xae?'
p86
tp87
Rp88
s(F1.0
F1.6
F0.4
tp89
g2
(g6
S'@\xe9\xdd\x17\x0e\xf9\xb1?'
p90
tp91
Rp92
s(F1.0
F1.8
F1.4000000000000001
tp93
g71
s(F1.0
F1.2000000000000002
F0.6000000000000001
tp94
g2
(g6
S'\x00\x1f\xb8\x117q\xae?'
p95
tp96
Rp97
s(F1.0
F1.0
F0.4
tp98
g2
(g6
S'\x80\x8a\x80\nD\x11\xaf?'
p99
tp100
Rp101
s(F1.0
F0.2
F1.0
tp102
g2
(g6
S'\x00\xa4Gr\x92\xba\xb0?'
p103
tp104
Rp105
s(F1.0
F0.6000000000000001
F1.8
tp106
g35
s(F1.0
F1.0
F1.8
tp107
g2
(g6
S'\x80\xb6\x9e[\xb6\x14\xaf?'
p108
tp109
Rp110
s(F1.0
F0.2
F1.6
tp111
g2
(g6
S'\x00#\xcag*E\xb3?'
p112
tp113
Rp114
s(F1.0
F1.8
F1.8
tp115
g2
(g6
S'\x00s\xfa`\xe5\x11\xb0?'
p116
tp117
Rp118
s(F1.0
F1.2000000000000002
F0.2
tp119
g19
s(F1.0
F0.4
F1.0
tp120
g101
s(F1.0
F1.0
F1.6
tp121
g2
(g6
S'\x80;X>oz\xad?'
p122
tp123
Rp124
s(F1.0
F1.0
F0.6000000000000001
tp125
g43
s(F1.0
F0.4
F0.8
tp126
g55
s(F1.0
F0.8
F1.6
tp127
g2
(g6
S'\x00+3\xeb\x16\xd3\xae?'
p128
tp129
Rp130
s(F1.0
F1.0
F1.4000000000000001
tp131
g2
(g6
S'\x00\xf3&\xcd~\x11\xab?'
p132
tp133
Rp134
s(F1.0
F0.6000000000000001
F0.4
tp135
g88
s(F1.0
F1.8
F0.2
tp136
g67
s(F1.0
F0.4
F1.2000000000000002
tp137
g2
(g6
S'\x00\x84\xcf8,m\xb0?'
p138
tp139
Rp140
s(F1.0
F1.6
F1.6
tp141
g2
(g6
S'\x80\xe5\x909\xec\xff\xad?'
p142
tp143
Rp144
s(F1.0
F1.4000000000000001
F1.2000000000000002
tp145
g31
s(F1.0
F1.2000000000000002
F2.0
tp146
g47
s(F1.0
F1.2000000000000002
F1.2000000000000002
tp147
g2
(g6
S'\x80\xaeB\xe8\xa7\x9d\xa9?'
p148
tp149
Rp150
s(F1.0
F1.8
F1.6
tp151
g2
(g6
S'\x00\xf2\x8cMs\xe5\xaf?'
p152
tp153
Rp154
s(F1.0
F1.6
F1.0
tp155
g124
s(F1.0
F0.4
F1.4000000000000001
tp156
g2
(g6
S'\xc0*\xf1\x014=\xb1?'
p157
tp158
Rp159
s(F1.0
F1.4000000000000001
F0.2
tp160
g2
(g6
S'@\xee\xcc\xd1`r\xb2?'
p161
tp162
Rp163
s(F1.0
F1.6
F2.0
tp164
g2
(g6
S'\xc0\xbc*\xedZ\xd7\xb0?'
p165
tp166
Rp167
s(F1.0
F0.2
F0.8
tp168
g79
s(F1.0
F1.4000000000000001
F0.4
tp169
g159
s(F1.0
F0.4
F1.8
tp170
g2
(g6
S'\x80~\x10\xda\xa8\xa5\xb2?'
p171
tp172
Rp173
s(F1.0
F1.0
F2.0
tp174
g2
(g6
S'@;#\xb9\x98R\xb0?'
p175
tp176
Rp177
s(F1.0
F0.6000000000000001
F0.6000000000000001
tp178
g2
(g6
S'\x80\xda{d=[\xac?'
p179
tp180
Rp181
s(F1.0
F1.8
F1.2000000000000002
tp182
g39
s(F1.0
F2.0
F0.2
tp183
g84
s(F1.0
F1.6
F1.4000000000000001
tp184
g2
(g6
S'\x00\xdc\x0c\x84\x9c\xdf\xad?'
p185
tp186
Rp187
s(F1.0
F0.4
F2.0
tp188
g27
s(F1.0
F1.8
F1.0
tp189
g110
s(F1.0
F1.4000000000000001
F1.4000000000000001
tp190
g2
(g6
S'\x80{\td\x07\x11\xac?'
p191
tp192
Rp193
s(F1.0
F0.6000000000000001
F2.0
tp194
g2
(g6
S'@\x1b\x98\xd8\xa3\x9d\xb2?'
p195
tp196
Rp197
s(F1.0
F1.0
F1.2000000000000002
tp198
g2
(g6
S'\x80\x84\xcf\xad%\t\xa9?'
p199
tp200
Rp201
s(F1.0
F0.4
F0.4
tp202
g2
(g6
S'\x80\x9a\xf1\xedr\n\xae?'
p203
tp204
Rp205
s(F1.0
F1.4000000000000001
F0.8
tp206
g2
(g6
S'\x80Jv\x07\xbe5\xad?'
p207
tp208
Rp209
s(F1.0
F0.4
F0.2
tp210
g11
s(F1.0
F0.2
F0.6000000000000001
tp211
g2
(g6
S'@\x14\xea\xeb\xc6C\xb0?'
p212
tp213
Rp214
s(F1.0
F2.0
F1.0
tp215
g177
s(F1.0
F1.0
F0.2
tp216
g105
s(F1.0
F2.0
F0.8
tp217
g2
(g6
S'\x80\xf6\x9b\x12Nt\xb1?'
p218
tp219
Rp220
s(F1.0
F1.2000000000000002
F0.8
tp221
g75
s(F1.0
F0.8
F1.8
tp222
g51
s(F1.0
F2.0
F0.6000000000000001
tp223
g197
s(F1.0
F0.2
F1.4000000000000001
tp224
g163
s(F1.0
F1.4000000000000001
F1.0
tp225
g134
s(F1.0
F0.8
F0.6000000000000001
tp226
g2
(g6
S'\x00\xcaX86\x84\xac?'
p227
tp228
Rp229
s(F1.0
F1.2000000000000002
F1.6
tp230
g2
(g6
S'\x00\xdbC\x8a\xd2\xae\xad?'
p231
tp232
Rp233
s(F1.0
F1.6
F0.8
tp234
g130
s(F1.0
F1.2000000000000002
F1.0
tp235
g201
s(F1.0
F1.8
F0.4
tp236
g173
s(F1.0
F1.6
F1.8
tp237
g154
s(F1.0
F2.0
F1.8
tp238
g23
s(F1.0
F1.2000000000000002
F0.4
tp239
g140
s(F1.0
F1.4000000000000001
F2.0
tp240
g2
(g6
S'\x80]P\nJ\xad\xb0?'
p241
tp242
Rp243
s(F1.0
F0.6000000000000001
F0.2
tp244
g214
s(F1.0
F1.4000000000000001
F1.6
tp245
g187
s(F1.0
F0.8
F1.0
tp246
g2
(g6
S'\x00\xa8$\x1aXp\xaa?'
p247
tp248
Rp249
s(F1.0
F1.6
F0.2
tp250
g114
s(F1.0
F0.8
F2.0
tp251
g220
s(F1.0
F0.6000000000000001
F0.8
tp252
g229
s(F1.0
F1.6
F1.2000000000000002
tp253
g233
s(F1.0
F0.8
F1.4000000000000001
tp254
g209
s(F1.0
F0.4
F1.6
tp255
g92
s(F1.0
F2.0
F1.6
tp256
g167
s(F1.0
F0.6000000000000001
F1.2000000000000002
tp257
g97
s(F1.0
F1.0
F1.0
tp258
g2
(g6
S'\x00\x18B\xd9R\x18\xa8?'
p259
tp260
Rp261
s(F1.0
F1.0
F0.8
tp262
g249
s(F1.0
F0.8
F0.8
tp263
g2
(g6
S'\x00Aq\x15\x1el\xaa?'
p264
tp265
Rp266
s(F1.0
F2.0
F1.4000000000000001
tp267
g243
s(F1.0
F0.6000000000000001
F1.6
tp268
g2
(g6
S'\x00:+\xf4\xc0\xcd\xb0?'
p269
tp270
Rp271
s(F1.0
F1.6
F0.6000000000000001
tp272
g271
s.