(dp0
(I10
I4
I3
tp1
Finf
s(I10
I3
I3
tp2
F0.0
s(I10
I4
I5
tp3
Finf
s(I10
I1
I6
tp4
Finf
s(I10
I4
I7
tp5
cnumpy.core.multiarray
scalar
p6
(cnumpy
dtype
p7
(S'f8'
p8
I0
I1
tp9
Rp10
(I3
S'<'
p11
NNNI-1
I-1
I0
tp12
bS'}\xae\xd3\x97,c!@'
p13
tp14
Rp15
s(I10
I1
I4
tp16
Finf
s(I10
I4
I9
tp17
g6
(g10
S'2&#3\x99K\x00@'
p18
tp19
Rp20
s(I10
I3
I9
tp21
g6
(g10
S'\x8c\x1d\x04\xb3\xa7\x81\x0c@'
p22
tp23
Rp24
s(I10
I1
I2
tp25
Finf
s(I10
I2
I2
tp26
F0.0
s(I10
I10
I9
tp27
g6
(g10
S'\x00\xf9\xaaH0\x92\xc3?'
p28
tp29
Rp30
s(I10
I9
I9
tp31
F0.0
s(I10
I9
I7
tp32
g6
(g10
S'p\xcb\xf1\xd4)\xb1\xe1?'
p33
tp34
Rp35
s(I10
I2
I6
tp36
Finf
s(I10
I9
I5
tp37
g6
(g10
S'\x9c\x1a^\xaf\x07\xe3\xf5?'
p38
tp39
Rp40
s(I10
I7
I2
tp41
Finf
s(I10
I2
I4
tp42
Finf
s(I10
I1
I10
tp43
g6
(g10
S'\x8e\xa8\xe3\x95C\x8c(@'
p44
tp45
Rp46
s(I10
I10
I3
tp47
g6
(g10
S'\xb2\xae\xb9\x0b\x10L\x02@'
p48
tp49
Rp50
s(I10
I6
I9
tp51
g6
(g10
S'\xf0\x9d\xf0\x9a\x1f{\xec?'
p52
tp53
Rp54
s(I10
I9
I3
tp55
g24
s(I10
I7
I4
tp56
g15
s(I10
I2
I10
tp57
g6
(g10
S'l""e\x11\x9f\x0f@'
p58
tp59
Rp60
s(I10
I1
I8
tp61
Finf
s(I10
I10
I1
tp62
g46
s(I10
I6
I7
tp63
g6
(g10
S'p\xad\xd7\x9b\x87P\x04@'
p64
tp65
Rp66
s(I10
I9
I1
tp67
g6
(g10
S"\xd66BK~P'@"
p68
tp69
Rp70
s(I10
I7
I6
tp71
g66
s(I10
I2
I8
tp72
g6
(g10
S'\xef\x92,Df\x99\x1a@'
p73
tp74
Rp75
s(I10
I10
I7
tp76
g6
(g10
S'@\xd1\xde\x86\xf0\xca\xd9?'
p77
tp78
Rp79
s(I10
I6
I5
tp80
g6
(g10
S'd%\xef}\xd8\xb9!@'
p81
tp82
Rp83
s(I10
I7
I8
tp84
g6
(g10
S'\xfc\xdb\xa9\xbd\xca3\xf0?'
p85
tp86
Rp87
s(I10
I10
I5
tp88
g6
(g10
S'\xa0N\xdd\xae\x03\x13\xee?'
p89
tp90
Rp91
s(I10
I8
I8
tp92
F0.0
s(I10
I6
I3
tp93
Finf
s(I10
I7
I10
tp94
g79
s(I10
I5
I3
tp95
Finf
s(I10
I8
I10
tp96
g6
(g10
S'\x80\xea\xc2(\x9do\xd1?'
p97
tp98
Rp99
s(I10
I6
I1
tp100
Finf
s(I10
I5
I1
tp101
Finf
s(I10
I8
I4
tp102
g6
(g10
S'D\xa7\x00\xdd\x8c\xe7\x10@'
p103
tp104
Rp105
s(I10
I5
I7
tp106
g6
(g10
S'\r\xad\xe2\xf34\x11\x12@'
p107
tp108
Rp109
s(I10
I8
I6
tp110
g6
(g10
S'\xa0\xa0\xc6\x84\xbe\x9d\xfa?'
p111
tp112
Rp113
s(I10
I5
I5
tp114
F0.0
s(I10
I3
I4
tp115
Finf
s(I10
I8
I2
tp116
g75
s(I10
I5
I9
tp117
g40
s(I10
I3
I6
tp118
Finf
s(I10
I3
I2
tp119
Finf
s(I10
I4
I2
tp120
Finf
s(I10
I4
I4
tp121
F0.0
s(I10
I1
I7
tp122
Finf
s(I10
I4
I6
tp123
g6
(g10
S'V\xb1\xbe\xcd\x9b1 @'
p124
tp125
Rp126
s(I10
I3
I8
tp127
g6
(g10
S'tn\xec\xff1E @'
p128
tp129
Rp130
s(I10
I1
I5
tp131
Finf
s(I10
I9
I10
tp132
g30
s(I10
I4
I8
tp133
g105
s(I10
I2
I3
tp134
Finf
s(I10
I3
I10
tp135
g50
s(I10
I1
I3
tp136
Finf
s(I10
I10
I10
tp137
g6
(g10
S'\x00\x8f)\xb5\xa4\xf5\xb1?'
p138
tp139
Rp140
s(I10
I9
I8
tp141
g6
(g10
S'\xa0\x81Z$\xb1\xba\xd1?'
p142
tp143
Rp144
s(I10
I4
I10
tp145
g6
(g10
S'd\xd9\xe4%\xde4\xf6?'
p146
tp147
Rp148
s(I10
I2
I1
tp149
Finf
s(I10
I1
I1
tp150
Finf
s(I10
I10
I8
tp151
g99
s(I10
I9
I6
tp152
g54
s(I10
I2
I7
tp153
Finf
s(I10
I9
I4
tp154
g20
s(I10
I7
I1
tp155
Finf
s(I10
I2
I5
tp156
Finf
s(I10
I6
I10
tp157
g6
(g10
S'@>\xbc\xae\x16\x13\xe3?'
p158
tp159
Rp160
s(I10
I9
I2
tp161
g6
(g10
S'\x1a\xec=\xefs\xf8\x1b@'
p162
tp163
Rp164
s(I10
I7
I3
tp165
g6
(g10
S'\x91\xc4v\x1a\xed\xaa\x1e@'
p166
tp167
Rp168
s(I10
I10
I2
tp169
g60
s(I10
I6
I8
tp170
g113
s(I10
I7
I5
tp171
g109
s(I10
I2
I9
tp172
g164
s(I10
I1
I9
tp173
g70
s(I10
I6
I6
tp174
F0.0
s(I10
I7
I7
tp175
F0.0
s(I10
I10
I6
tp176
g160
s(I10
I8
I9
tp177
g144
s(I10
I6
I4
tp178
g126
s(I10
I7
I9
tp179
g35
s(I10
I5
I2
tp180
Finf
s(I10
I10
I4
tp181
g148
s(I10
I6
I2
tp182
Finf
s(I10
I8
I5
tp183
g6
(g10
S'^\xc0]n\x1f\\\x03@'
p184
tp185
Rp186
s(I10
I5
I6
tp187
g83
s(I10
I8
I7
tp188
g87
s(I10
I5
I4
tp189
Finf
s(I10
I8
I1
tp190
Finf
s(I10
I5
I10
tp191
g91
s(I10
I8
I3
tp192
g130
s(I10
I5
I8
tp193
g186
s(I10
I3
I5
tp194
Finf
s(I10
I3
I7
tp195
g168
s(I10
I4
I1
tp196
Finf
s(I10
I3
I1
tp197
Finf
s.