(dp0
(I10
I4
I3
tp1
Finf
s(I10
I3
I3
tp2
F0.0
s(I10
I4
I5
tp3
cnumpy.core.multiarray
scalar
p4
(cnumpy
dtype
p5
(S'f8'
p6
I0
I1
tp7
Rp8
(I3
S'<'
p9
NNNI-1
I-1
I0
tp10
bS'\xdc\x9f\xdave}\x18@'
p11
tp12
Rp13
s(I10
I1
I6
tp14
Finf
s(I10
I4
I7
tp15
g4
(g8
S'U\x0bl]\xe0w\x1d@'
p16
tp17
Rp18
s(I10
I1
I4
tp19
Finf
s(I10
I4
I9
tp20
g4
(g8
S'D{\xf0\xe6\xe0\xa0\xfd?'
p21
tp22
Rp23
s(I10
I3
I9
tp24
g4
(g8
S'J\xb4.\x18\xf4\x0e\t@'
p25
tp26
Rp27
s(I10
I1
I2
tp28
Finf
s(I10
I2
I2
tp29
F0.0
s(I10
I10
I9
tp30
g4
(g8
S'\xa0\x17\xd6{\x92B\xc3?'
p31
tp32
Rp33
s(I10
I9
I9
tp34
F0.0
s(I10
I9
I7
tp35
g4
(g8
S'@\r^\ni\xb9\xde?'
p36
tp37
Rp38
s(I10
I2
I6
tp39
Finf
s(I10
I9
I5
tp40
g4
(g8
S'\\\xcc#\xcb\xfe;\xf2?'
p41
tp42
Rp43
s(I10
I7
I2
tp44
g4
(g8
S'\x0cM\x9f\x08\x8a\x8c\x14@'
p45
tp46
Rp47
s(I10
I2
I4
tp48
Finf
s(I10
I1
I10
tp49
g4
(g8
S'I\r\xc0{\x02\xfd\x1e@'
p50
tp51
Rp52
s(I10
I10
I3
tp53
g4
(g8
S'\xf4\xfc\x10t\xab\xf6\xfe?'
p54
tp55
Rp56
s(I10
I6
I9
tp57
g4
(g8
S'x\xbd\x05\xc8\xa3\x9a\xe9?'
p58
tp59
Rp60
s(I10
I9
I3
tp61
g27
s(I10
I7
I4
tp62
g18
s(I10
I2
I10
tp63
g4
(g8
S'>(\xa4\xbbB\xd7\x0b@'
p64
tp65
Rp66
s(I10
I1
I8
tp67
g4
(g8
S'\x83\xe3IV}F\x1a@'
p68
tp69
Rp70
s(I10
I10
I1
tp71
g52
s(I10
I6
I7
tp72
g4
(g8
S'\xfcp\x83k\xf3\x84\x02@'
p73
tp74
Rp75
s(I10
I9
I1
tp76
g4
(g8
S'w\xd7\xfa\xc7\x8b\xde\x1b@'
p77
tp78
Rp79
s(I10
I7
I6
tp80
g75
s(I10
I2
I8
tp81
g4
(g8
S'a\xaab\xb1\xa8\xff\x15@'
p82
tp83
Rp84
s(I10
I10
I7
tp85
g4
(g8
S'\xc0\xc7\x17\xc6\x05\xfc\xd7?'
p86
tp87
Rp88
s(I10
I6
I5
tp89
g4
(g8
S'\xb8\xc2\xcf\x97H\x16\x1e@'
p90
tp91
Rp92
s(I10
I7
I8
tp93
g4
(g8
S'H\x92\xfdn3\x1c\xed?'
p94
tp95
Rp96
s(I10
I10
I5
tp97
g4
(g8
S'\xe0\x9c\xc7W*\x1a\xe9?'
p98
tp99
Rp100
s(I10
I8
I8
tp101
F0.0
s(I10
I6
I3
tp102
g4
(g8
S'=Jn*4\x96\x17@'
p103
tp104
Rp105
s(I10
I7
I10
tp106
g88
s(I10
I5
I3
tp107
Finf
s(I10
I8
I10
tp108
g4
(g8
S'\xe0\x19\rq\xd2v\xcf?'
p109
tp110
Rp111
s(I10
I6
I1
tp112
Finf
s(I10
I5
I1
tp113
Finf
s(I10
I8
I4
tp114
g4
(g8
S'\x98H\x81\x86\x8e\xe6\r@'
p115
tp116
Rp117
s(I10
I5
I7
tp118
g4
(g8
S'\xf8\xee\x05\x00\xc7\x05\x10@'
p119
tp120
Rp121
s(I10
I8
I6
tp122
g4
(g8
S'\xd85\xf6t\xc5\xf8\xf5?'
p123
tp124
Rp125
s(I10
I5
I5
tp126
F0.0
s(I10
I3
I4
tp127
Finf
s(I10
I8
I2
tp128
g84
s(I10
I5
I9
tp129
g43
s(I10
I3
I6
tp130
g105
s(I10
I3
I2
tp131
Finf
s(I10
I4
I2
tp132
Finf
s(I10
I4
I4
tp133
F0.0
s(I10
I1
I7
tp134
Finf
s(I10
I4
I6
tp135
g4
(g8
S'\x1f\xbev\xae\xe2 \x1b@'
p136
tp137
Rp138
s(I10
I3
I8
tp139
g4
(g8
S'\xe0&\x0c\x04\x84s\x1b@'
p140
tp141
Rp142
s(I10
I1
I5
tp143
Finf
s(I10
I9
I10
tp144
g33
s(I10
I4
I8
tp145
g117
s(I10
I2
I3
tp146
Finf
s(I10
I3
I10
tp147
g56
s(I10
I1
I3
tp148
Finf
s(I10
I10
I10
tp149
g4
(g8
S'@"\xbf\x128|\xb0?'
p150
tp151
Rp152
s(I10
I9
I8
tp153
g4
(g8
S'\x10\xd3\x020"\xb7\xd0?'
p154
tp155
Rp156
s(I10
I4
I10
tp157
g4
(g8
S'\xdc\x86\xffav0\xf4?'
p158
tp159
Rp160
s(I10
I2
I1
tp161
Finf
s(I10
I1
I1
tp162
Finf
s(I10
I10
I8
tp163
g111
s(I10
I9
I6
tp164
g60
s(I10
I2
I7
tp165
g47
s(I10
I9
I4
tp166
g23
s(I10
I7
I1
tp167
Finf
s(I10
I2
I5
tp168
Finf
s(I10
I6
I10
tp169
g4
(g8
S'(\xf0\xe5b\xaeR\xe1?'
p170
tp171
Rp172
s(I10
I9
I2
tp173
g4
(g8
S'\x80I r\x83c\x17@'
p174
tp175
Rp176
s(I10
I7
I3
tp177
g4
(g8
S'ATsr\xf6\x96\x19@'
p178
tp179
Rp180
s(I10
I10
I2
tp181
g66
s(I10
I6
I8
tp182
g125
s(I10
I7
I5
tp183
g121
s(I10
I2
I9
tp184
g176
s(I10
I1
I9
tp185
g79
s(I10
I6
I6
tp186
F0.0
s(I10
I7
I7
tp187
F0.0
s(I10
I10
I6
tp188
g172
s(I10
I8
I9
tp189
g156
s(I10
I6
I4
tp190
g138
s(I10
I7
I9
tp191
g38
s(I10
I5
I2
tp192
Finf
s(I10
I10
I4
tp193
g160
s(I10
I6
I2
tp194
Finf
s(I10
I8
I5
tp195
g4
(g8
S'Di\x8bY\x80\xa6\x01@'
p196
tp197
Rp198
s(I10
I5
I6
tp199
g92
s(I10
I8
I7
tp200
g96
s(I10
I5
I4
tp201
g13
s(I10
I8
I1
tp202
g70
s(I10
I5
I10
tp203
g100
s(I10
I8
I3
tp204
g142
s(I10
I5
I8
tp205
g198
s(I10
I3
I5
tp206
Finf
s(I10
I3
I7
tp207
g180
s(I10
I4
I1
tp208
Finf
s(I10
I3
I1
tp209
Finf
s.