(dp0
(I10
I4
I3
tp1
cnumpy.core.multiarray
scalar
p2
(cnumpy
dtype
p3
(S'f8'
p4
I0
I1
tp5
Rp6
(I3
S'<'
p7
NNNI-1
I-1
I0
tp8
bS'\xe04:P\xb0g\x06@'
p9
tp10
Rp11
s(I10
I3
I3
tp12
F0.0
s(I10
I4
I5
tp13
g2
(g6
S'\xe8$\x0c\xa6\xd1\xd6\x0f@'
p14
tp15
Rp16
s(I10
I1
I6
tp17
g2
(g6
S'\xcc\x07N\x95\xe5U\t@'
p18
tp19
Rp20
s(I10
I4
I7
tp21
g2
(g6
S'\xad:\xb9\x07\xcc\xfb\x13@'
p22
tp23
Rp24
s(I10
I1
I4
tp25
Finf
s(I10
I4
I9
tp26
g2
(g6
S'\xbc.\\\xa3-\xe8\xf6?'
p27
tp28
Rp29
s(I10
I3
I9
tp30
g2
(g6
S'\xb2\x13jV\xe09\x02@'
p31
tp32
Rp33
s(I10
I1
I2
tp34
Finf
s(I10
I2
I2
tp35
F0.0
s(I10
I10
I9
tp36
g2
(g6
S'@\x7fK\x1d\xd3~\xbf?'
p37
tp38
Rp39
s(I10
I9
I9
tp40
F0.0
s(I10
I9
I7
tp41
g2
(g6
S'\x90\xc2iO\xd0\xc9\xd8?'
p42
tp43
Rp44
s(I10
I2
I6
tp45
g2
(g6
S'\xf4"\xa3\xdf!u\x07@'
p46
tp47
Rp48
s(I10
I9
I5
tp49
g2
(g6
S'\xd0\xd2s\xb6\xb5a\xed?'
p50
tp51
Rp52
s(I10
I7
I2
tp53
g2
(g6
S'\xacO\xa6\x83\t\x1e\n@'
p54
tp55
Rp56
s(I10
I2
I4
tp57
Finf
s(I10
I1
I10
tp58
g2
(g6
S'\x06\xc5\x9f\x0fL\x84\x0e@'
p59
tp60
Rp61
s(I10
I10
I3
tp62
g2
(g6
S'0\x97\x86e\xef\xc5\xf8?'
p63
tp64
Rp65
s(I10
I6
I9
tp66
g2
(g6
S'\x08\xa28\x8b-c\xe3?'
p67
tp68
Rp69
s(I10
I9
I3
tp70
g33
s(I10
I7
I4
tp71
g24
s(I10
I2
I10
tp72
g2
(g6
S'\xecz\xea\x1as~\x02@'
p73
tp74
Rp75
s(I10
I1
I8
tp76
g2
(g6
S'\xa4\xe5,y\xee@\x0e@'
p77
tp78
Rp79
s(I10
I10
I1
tp80
g61
s(I10
I6
I7
tp81
g2
(g6
S'\xb8\x83{G\xcd\xe8\xfc?'
p82
tp83
Rp84
s(I10
I9
I1
tp85
g2
(g6
S'\xae\x91%\xd9!\x81\r@'
p86
tp87
Rp88
s(I10
I7
I6
tp89
g84
s(I10
I2
I8
tp90
g2
(g6
S'^\xd77\x82\x87\x8e\x0c@'
p91
tp92
Rp93
s(I10
I10
I7
tp94
g2
(g6
S'p\xb7-\x11\x12P\xd4?'
p95
tp96
Rp97
s(I10
I6
I5
tp98
g2
(g6
S'!\xfdoO\x86w\x14@'
p99
tp100
Rp101
s(I10
I7
I8
tp102
g2
(g6
S'`4\xd8\xa3\x7f\xf0\xe5?'
p103
tp104
Rp105
s(I10
I10
I5
tp106
g2
(g6
S'HXq\x8f\xfcN\xe4?'
p107
tp108
Rp109
s(I10
I8
I8
tp110
F0.0
s(I10
I6
I3
tp111
g2
(g6
S'\x88-\xff!\x9c\x81\x0e@'
p112
tp113
Rp114
s(I10
I7
I10
tp115
g97
s(I10
I5
I3
tp116
g2
(g6
S'\x9ex\x1e\xfd\xde\xc0\n@'
p117
tp118
Rp119
s(I10
I8
I10
tp120
g2
(g6
S'\x80\x0bQ"z\xdf\xc9?'
p121
tp122
Rp123
s(I10
I6
I1
tp124
g20
s(I10
I5
I1
tp125
Finf
s(I10
I8
I4
tp126
g2
(g6
S't\xbe\x96\xc7\xd7\xfe\x05@'
p127
tp128
Rp129
s(I10
I5
I7
tp130
g2
(g6
S'\xe8\x99\xff\x9ap\xb2\x07@'
p131
tp132
Rp133
s(I10
I8
I6
tp134
g2
(g6
S'\xe8\xe9\xbf0\x17?\xf1?'
p135
tp136
Rp137
s(I10
I5
I5
tp138
F0.0
s(I10
I3
I4
tp139
g11
s(I10
I8
I2
tp140
g93
s(I10
I5
I9
tp141
g52
s(I10
I3
I6
tp142
g114
s(I10
I3
I2
tp143
Finf
s(I10
I4
I2
tp144
Finf
s(I10
I4
I4
tp145
F0.0
s(I10
I1
I7
tp146
g2
(g6
S'\xe4>\xc6\xb7\x1f\xe7\x0c@'
p147
tp148
Rp149
s(I10
I4
I6
tp150
g2
(g6
S'm\xaf\x02W\x91\x14\x12@'
p151
tp152
Rp153
s(I10
I3
I8
tp154
g2
(g6
S'\x03Ce\xe7\xe8n\x12@'
p155
tp156
Rp157
s(I10
I1
I5
tp158
Finf
s(I10
I9
I10
tp159
g39
s(I10
I4
I8
tp160
g129
s(I10
I2
I3
tp161
Finf
s(I10
I3
I10
tp162
g65
s(I10
I1
I3
tp163
Finf
s(I10
I10
I10
tp164
g2
(g6
S'\x804\xd2\x18\x8d\r\xad?'
p165
tp166
Rp167
s(I10
I9
I8
tp168
g2
(g6
S' \xad\x0f\x8f\x0eW\xcb?'
p169
tp170
Rp171
s(I10
I4
I10
tp172
g2
(g6
S'\xd8\x1b\x07#U\x10\xef?'
p173
tp174
Rp175
s(I10
I2
I1
tp176
Finf
s(I10
I1
I1
tp177
Finf
s(I10
I10
I8
tp178
g123
s(I10
I9
I6
tp179
g69
s(I10
I2
I7
tp180
g56
s(I10
I9
I4
tp181
g29
s(I10
I7
I1
tp182
g149
s(I10
I2
I5
tp183
g2
(g6
S'&q\xf4\xad\x81\x81\x04@'
p184
tp185
Rp186
s(I10
I6
I10
tp187
g2
(g6
S'\x10\x04G\xcb\xd9>\xdb?'
p188
tp189
Rp190
s(I10
I9
I2
tp191
g2
(g6
S'\x88\xdc\xb0D?\xd3\x0e@'
p192
tp193
Rp194
s(I10
I7
I3
tp195
g2
(g6
S'\x9b\x91\xfa\xe3^\xeb\x10@'
p196
tp197
Rp198
s(I10
I10
I2
tp199
g75
s(I10
I6
I8
tp200
g137
s(I10
I7
I5
tp201
g133
s(I10
I2
I9
tp202
g194
s(I10
I1
I9
tp203
g88
s(I10
I6
I6
tp204
F0.0
s(I10
I7
I7
tp205
F0.0
s(I10
I10
I6
tp206
g190
s(I10
I8
I9
tp207
g171
s(I10
I6
I4
tp208
g153
s(I10
I7
I9
tp209
g44
s(I10
I5
I2
tp210
g186
s(I10
I10
I4
tp211
g175
s(I10
I6
I2
tp212
g48
s(I10
I8
I5
tp213
g2
(g6
S'\xe8\x085\x1b\r\x7f\xfb?'
p214
tp215
Rp216
s(I10
I5
I6
tp217
g101
s(I10
I8
I7
tp218
g105
s(I10
I5
I4
tp219
g16
s(I10
I8
I1
tp220
g79
s(I10
I5
I10
tp221
g109
s(I10
I8
I3
tp222
g157
s(I10
I5
I8
tp223
g216
s(I10
I3
I5
tp224
g119
s(I10
I3
I7
tp225
g198
s(I10
I4
I1
tp226
Finf
s(I10
I3
I1
tp227
Finf
s.