(dp0
(F1.0
F0.4
F0.2
tp1
cnumpy.core.multiarray
scalar
p2
(cnumpy
dtype
p3
(S'f8'
p4
I0
I1
tp5
Rp6
(I3
S'<'
p7
NNNI-1
I-1
I0
tp8
bS'\xc0R_\xa57\xd5\xb5?'
p9
tp10
Rp11
s(F1.0
F1.4000000000000001
F0.8
tp12
g2
(g6
S'\x80<R9\xe9\xf3\xb5?'
p13
tp14
Rp15
s(F1.0
F1.4000000000000001
F1.2000000000000002
tp16
g2
(g6
S'\xc0\xa6\xc69$\xab\xb2?'
p17
tp18
Rp19
s(F1.0
F0.2
F1.2000000000000002
tp20
g2
(g6
S'@\xaf4\xf7\xe0\xf1\xb8?'
p21
tp22
Rp23
s(F1.0
F1.8
F2.0
tp24
g2
(g6
S'\x80\x8f!A\xc7\x91\xb7?'
p25
tp26
Rp27
s(F1.0
F2.0
F1.6
tp28
g2
(g6
S'\xc0X\x0f7\x14\xc3\xb7?'
p29
tp30
Rp31
s(F1.0
F0.6000000000000001
F1.4000000000000001
tp32
g2
(g6
S'\xc0Q\xc4\x1b\xcf\x86\xb7?'
p33
tp34
Rp35
s(F1.0
F1.8
F0.6000000000000001
tp36
g2
(g6
S'@\xe6\x83\x96a\x8d\xba?'
p37
tp38
Rp39
s(F1.0
F1.2000000000000002
F1.8
tp40
g2
(g6
S'\x80\xe4\x9d\xe7\x1a\xd1\xb5?'
p41
tp42
Rp43
s(F1.0
F0.6000000000000001
F1.0
tp44
g2
(g6
S'\x80#\xf8\xe5C\x98\xb4?'
p45
tp46
Rp47
s(F1.0
F2.0
F0.6000000000000001
tp48
g2
(g6
S'\x00\x81\xf8+\xb2\x89\xba?'
p49
tp50
Rp51
s(F1.0
F0.8
F2.0
tp52
g2
(g6
S'\xc0N\x7f\xd1\xf2\xda\xb8?'
p53
tp54
Rp55
s(F1.0
F1.8
F0.4
tp56
g2
(g6
S'\x80:\xff\xbd\xda\x84\xbd?'
p57
tp58
Rp59
s(F1.0
F0.8
F0.4
tp60
g2
(g6
S'\x80G\xf7\x80a\xb6\xb5?'
p61
tp62
Rp63
s(F1.0
F0.2
F0.2
tp64
g2
(g6
S'\x80?\xd6\x05\x15\\\xb6?'
p65
tp66
Rp67
s(F1.0
F2.0
F2.0
tp68
g2
(g6
S'@^\x7f\xab\xa7\x01\xb8?'
p69
tp70
Rp71
s(F1.0
F0.2
F0.6000000000000001
tp72
g2
(g6
S'\x80\x1fE\xf9\x17h\xb6?'
p73
tp74
Rp75
s(F1.0
F1.4000000000000001
F1.8
tp76
g2
(g6
S'@G\xebw\x1a\xfc\xb5?'
p77
tp78
Rp79
s(F1.0
F0.8
F1.2000000000000002
tp80
g2
(g6
S'@7\x12\xec\xfb\x97\xb4?'
p81
tp82
Rp83
s(F1.0
F0.8
F0.2
tp84
g2
(g6
S'@\x83\xac+\x8f\x00\xb7?'
p85
tp86
Rp87
s(F1.0
F1.2000000000000002
F1.4000000000000001
tp88
g19
s(F1.0
F0.2
F2.0
tp89
g2
(g6
S'`\x1b\xa1\x0cm4\xc0?'
p90
tp91
Rp92
s(F1.0
F0.4
F1.6
tp93
g2
(g6
S'\x80%\xa2\x86k\x84\xba?'
p94
tp95
Rp96
s(F1.0
F1.8
F1.4000000000000001
tp97
g79
s(F1.0
F1.2000000000000002
F0.6000000000000001
tp98
g2
(g6
S'@0x\xbc\xea\x08\xb6?'
p99
tp100
Rp101
s(F1.0
F1.0
F0.4
tp102
g2
(g6
S'\x80\x8eX\xd4\xbd\x1b\xb6?'
p103
tp104
Rp105
s(F1.0
F0.2
F1.0
tp106
g2
(g6
S'\x80\x8c\x9b9!\x88\xb7?'
p107
tp108
Rp109
s(F1.0
F1.6
F1.4000000000000001
tp110
g2
(g6
S'\xc0\x18\x96\xe1\xd0R\xb4?'
p111
tp112
Rp113
s(F1.0
F1.0
F1.8
tp114
g2
(g6
S'\x80\xae\xbc\x04b\xaa\xb5?'
p115
tp116
Rp117
s(F1.0
F0.2
F1.6
tp118
g2
(g6
S'\xc0\x13;\x96\x02\xde\xbb?'
p119
tp120
Rp121
s(F1.0
F1.8
F1.8
tp122
g2
(g6
S'\x00\xff#0\xa93\xb6?'
p123
tp124
Rp125
s(F1.0
F0.6000000000000001
F0.2
tp126
g75
s(F1.0
F0.4
F1.0
tp127
g105
s(F1.0
F1.0
F1.6
tp128
g2
(g6
S'\x80\xe2\\\x16\x1a(\xb4?'
p129
tp130
Rp131
s(F1.0
F1.0
F1.2000000000000002
tp132
g2
(g6
S'\xc0\xd2P\xbd=\x13\xb3?'
p133
tp134
Rp135
s(F1.0
F0.4
F0.8
tp136
g63
s(F1.0
F0.8
F1.6
tp137
g2
(g6
S'@\xe13\xcb\xd2U\xb6?'
p138
tp139
Rp140
s(F1.0
F0.8
F1.8
tp141
g2
(g6
S'\x80\x9c\xf0J\x8eX\xb7?'
p142
tp143
Rp144
s(F1.0
F1.4000000000000001
F1.0
tp145
g2
(g6
S'\xc0\x10\xd9H\x91\x11\xb3?'
p146
tp147
Rp148
s(F1.0
F2.0
F0.4
tp149
g2
(g6
S'@\x00\xabAS\xd2\xbd?'
p150
tp151
Rp152
s(F1.0
F0.6000000000000001
F0.4
tp153
g2
(g6
S'\x80\x86\x87\xbe\x1bR\xb5?'
p154
tp155
Rp156
s(F1.0
F1.8
F0.2
tp157
g2
(g6
S'\xc0\x12\xbc\xd6\x1fk\xbd?'
p158
tp159
Rp160
s(F1.0
F1.4000000000000001
F0.6000000000000001
tp161
g35
s(F1.0
F0.6000000000000001
F2.0
tp162
g51
s(F1.0
F1.2000000000000002
F1.2000000000000002
tp163
g2
(g6
S'\x00\x1d\x82\x94*\xba\xb1?'
p164
tp165
Rp166
s(F1.0
F1.8
F1.6
tp167
g2
(g6
S'\xc0K\x7f7\x92\x14\xb6?'
p168
tp169
Rp170
s(F1.0
F1.6
F1.0
tp171
g131
s(F1.0
F0.8
F1.4000000000000001
tp172
g15
s(F1.0
F1.4000000000000001
F0.4
tp173
g2
(g6
S'\xc0:^\xe3\xba\xf4\xb8?'
p174
tp175
Rp176
s(F1.0
F1.6
F2.0
tp177
g31
s(F1.0
F0.2
F0.8
tp178
g87
s(F1.0
F0.4
F1.8
tp179
g59
s(F1.0
F1.0
F2.0
tp180
g2
(g6
S'@`^\xedS,\xb7?'
p181
tp182
Rp183
s(F1.0
F0.6000000000000001
F0.6000000000000001
tp184
g2
(g6
S'\x80\xf2\xfc\x97\x99&\xb4?'
p185
tp186
Rp187
s(F1.0
F1.8
F1.2000000000000002
tp188
g43
s(F1.0
F2.0
F0.2
tp189
g92
s(F1.0
F1.6
F0.4
tp190
g96
s(F1.0
F1.2000000000000002
F0.2
tp191
g23
s(F1.0
F1.8
F1.0
tp192
g117
s(F1.0
F1.4000000000000001
F1.4000000000000001
tp193
g2
(g6
S'\xc0\xa4\xddX3\xca\xb2?'
p194
tp195
Rp196
s(F1.0
F1.2000000000000002
F2.0
tp197
g2
(g6
S'\x00\x14\xe6\xbe/j\xb7?'
p198
tp199
Rp200
s(F1.0
F1.0
F0.6000000000000001
tp201
g47
s(F1.0
F1.6
F1.6
tp202
g2
(g6
S'\x80s3\x8d\x10m\xb4?'
p203
tp204
Rp205
s(F1.0
F1.4000000000000001
F1.6
tp206
g113
s(F1.0
F0.2
F0.4
tp207
g11
s(F1.0
F1.2000000000000002
F1.0
tp208
g135
s(F1.0
F0.8
F0.6000000000000001
tp209
g2
(g6
S'\xc0\xbe\x9d4\xfcj\xb4?'
p210
tp211
Rp212
s(F1.0
F2.0
F1.0
tp213
g183
s(F1.0
F1.0
F0.2
tp214
g109
s(F1.0
F2.0
F0.8
tp215
g55
s(F1.0
F1.2000000000000002
F0.8
tp216
g83
s(F1.0
F0.2
F1.8
tp217
g160
s(F1.0
F2.0
F1.2000000000000002
tp218
g200
s(F1.0
F0.4
F0.4
tp219
g2
(g6
S'\xc0^?re\xe4\xb4?'
p220
tp221
Rp222
s(F1.0
F0.2
F1.4000000000000001
tp223
g2
(g6
S'\xc0\xf9{\xb4\x1cd\xba?'
p224
tp225
Rp226
s(F1.0
F1.0
F1.4000000000000001
tp227
g148
s(F1.0
F0.4
F1.2000000000000002
tp228
g2
(g6
S'\x00*\xca\xe8\xcc{\xb7?'
p229
tp230
Rp231
s(F1.0
F1.2000000000000002
F1.6
tp232
g2
(g6
S'\xc0TR]C>\xb4?'
p233
tp234
Rp235
s(F1.0
F1.6
F0.8
tp236
g140
s(F1.0
F0.6000000000000001
F1.8
tp237
g39
s(F1.0
F1.8
F0.8
tp238
g144
s(F1.0
F1.6
F1.8
tp239
g170
s(F1.0
F2.0
F1.8
tp240
g27
s(F1.0
F1.2000000000000002
F0.4
tp241
g231
s(F1.0
F1.4000000000000001
F2.0
tp242
g2
(g6
S'\x80\xe8H\x90\xeb\x93\xb7?'
p243
tp244
Rp245
s(F1.0
F1.6
F1.2000000000000002
tp246
g235
s(F1.0
F1.4000000000000001
F0.2
tp247
g226
s(F1.0
F0.8
F1.0
tp248
g2
(g6
S'@\xd8\xf0c\x85\x18\xb3?'
p249
tp250
Rp251
s(F1.0
F1.6
F0.2
tp252
g121
s(F1.0
F0.4
F2.0
tp253
g152
s(F1.0
F0.6000000000000001
F0.8
tp254
g212
s(F1.0
F0.4
F0.6000000000000001
tp255
g156
s(F1.0
F0.4
F1.4000000000000001
tp256
g176
s(F1.0
F0.6000000000000001
F1.2000000000000002
tp257
g101
s(F1.0
F1.0
F1.0
tp258
g2
(g6
S'\x00\x8a\xb3*8|\xb0?'
p259
tp260
Rp261
s(F1.0
F1.0
F0.8
tp262
g251
s(F1.0
F0.8
F0.8
tp263
g2
(g6
S'@g\x8aS\xfb\xfe\xb2?'
p264
tp265
Rp266
s(F1.0
F2.0
F1.4000000000000001
tp267
g245
s(F1.0
F0.6000000000000001
F1.6
tp268
g2
(g6
S'@\xfb\x89 c=\xb9?'
p269
tp270
Rp271
s(F1.0
F1.6
F0.6000000000000001
tp272
g271
s.